; Function Attrs: mustprogress uwtable
define internal fastcc void @_ZL7dsgets_PiPKcS_S_PdS2_S2_(ptr noundef readonly captures(none) %0, ptr noundef readonly captures(none) %1, ptr noundef readonly captures(none) %2, ptr noundef %3, ptr noundef %4, ptr noundef %5, ptr noundef %6) unnamed_addr #0 {
sub_0:
  %7 = alloca i32, align 4
  %8 = alloca i32, align 4
  call void @llvm.lifetime.start.p0(i64 4, ptr nonnull %7) #9
  store i32 1, ptr %7, align 4, !tbaa !3
  call void @llvm.lifetime.start.p0(i64 4, ptr nonnull %8) #9
  %9 = getelementptr inbounds i8, ptr %5, i64 -8
  %10 = getelementptr inbounds i8, ptr %4, i64 -8
  %11 = load i8, ptr %1, align 1
  %.not53 = icmp eq i8 %11, 66
  br i1 %.not53, label %.tail, label %.tail.thread

.tail:                                            ; preds = %sub_0
  %12 = getelementptr inbounds nuw i8, ptr %1, i64 1
  %13 = load i8, ptr %12, align 1
  %14 = icmp eq i8 %13, 69
  br i1 %14, label %15, label %.tail.thread

15:                                               ; preds = %.tail
  %16 = load i32, ptr %2, align 4, !tbaa !3
  %17 = load i32, ptr %3, align 4, !tbaa !3
  %18 = add nsw i32 %17, %16
  store i32 %18, ptr %8, align 4, !tbaa !3
  tail call fastcc void @_ZL7dsortr_PKcPiS1_PdS2_(ptr noundef nonnull @.str.2, i32 1, i32 %18, ptr noundef %4, ptr noundef %5)
  %19 = load i32, ptr %2, align 4, !tbaa !3
  %20 = icmp sgt i32 %19, 1
  br i1 %20, label %21, label %37

21:                                               ; preds = %15
  %22 = lshr i32 %19, 1
  %23 = load i32, ptr %3, align 4, !tbaa !3
  %. = tail call i32 @llvm.smin.i32(i32 %22, i32 %23)
  store i32 %., ptr %8, align 4, !tbaa !3
  %24 = tail call i32 @llvm.smax.i32(i32 %22, i32 %23)
  %25 = zext nneg i32 %24 to i64
  %26 = getelementptr double, ptr %10, i64 %25
  %27 = getelementptr i8, ptr %26, i64 8
  call void @dswap_(ptr noundef nonnull %8, ptr noundef %4, ptr noundef nonnull %7, ptr noundef %27, ptr noundef nonnull %7)
  %28 = load i32, ptr %3, align 4, !tbaa !3
  %29 = call i32 @llvm.smin.i32(i32 %22, i32 %28)
  store i32 %29, ptr %8, align 4, !tbaa !3
  %30 = call i32 @llvm.smax.i32(i32 %22, i32 %28)
  %31 = zext nneg i32 %30 to i64
  %32 = getelementptr double, ptr %9, i64 %31
  %33 = getelementptr i8, ptr %32, i64 8
  call void @dswap_(ptr noundef nonnull %8, ptr noundef %5, ptr noundef nonnull %7, ptr noundef %33, ptr noundef nonnull %7)
  br label %37

.tail.thread:                                     ; preds = %sub_0, %.tail
  %34 = load i32, ptr %2, align 4, !tbaa !3
  %35 = load i32, ptr %3, align 4, !tbaa !3
  %36 = add nsw i32 %35, %34
  store i32 %36, ptr %8, align 4, !tbaa !3
  tail call fastcc void @_ZL7dsortr_PKcPiS1_PdS2_(ptr noundef nonnull %1, i32 1, i32 %36, ptr noundef %4, ptr noundef %5)
  br label %37

37:                                               ; preds = %15, %21, %.tail.thread
  %38 = load i32, ptr %0, align 4, !tbaa !3
  %39 = icmp eq i32 %38, 1
  br i1 %39, label %40, label %44

40:                                               ; preds = %37
  %41 = load i32, ptr %3, align 4, !tbaa !3
  %42 = icmp sgt i32 %41, 0
  br i1 %42, label %43, label %44

43:                                               ; preds = %40
  %.val = load i32, ptr %7, align 4
  call fastcc void @_ZL7dsortr_PKcPiS1_PdS2_(ptr noundef nonnull @.str.1, i32 %.val, i32 %41, ptr noundef %5, ptr noundef %4)
  call void @dcopy_(ptr noundef nonnull %3, ptr noundef %4, ptr noundef nonnull %7, ptr noundef %6, ptr noundef nonnull %7)
  br label %44

44:                                               ; preds = %43, %40, %37
  call void @llvm.lifetime.end.p0(i64 4, ptr nonnull %8) #9
  call void @llvm.lifetime.end.p0(i64 4, ptr nonnull %7) #9
  ret void
}